; Function Attrs: mustprogress nounwind uwtable
define void @_ZN11OpenImageIO6v3_1_08DeepData4freeEv(ptr noundef nonnull align 8 captures(none) dereferenceable(20) initializes((8, 20)) %0) local_unnamed_addr #6 align 2 {
  %2 = getelementptr inbounds nuw i8, ptr %0, i64 8
  store i64 0, ptr %2, align 8, !tbaa !62
  %3 = getelementptr inbounds nuw i8, ptr %0, i64 16
  store i32 0, ptr %3, align 8, !tbaa !63
  %4 = load ptr, ptr %0, align 8, !tbaa !35
  %.not.i = icmp eq ptr %4, null
  br i1 %.not.i, label %_ZN11OpenImageIO6v3_1_08DeepData5clearEv.exit.thread, label %_ZN11OpenImageIO6v3_1_08DeepData5clearEv.exit

_ZN11OpenImageIO6v3_1_08DeepData5clearEv.exit:    ; preds = %1
  tail call void @_ZN11OpenImageIO6v3_1_08DeepData4Impl5clearEv(ptr noundef nonnull align 8 dereferenceable(250) %4)
  %.pr = load ptr, ptr %0, align 8, !tbaa !35
  %5 = icmp eq ptr %.pr, null
  br i1 %5, label %_ZN11OpenImageIO6v3_1_08DeepData5clearEv.exit.thread, label %6

6:                                                ; preds = %_ZN11OpenImageIO6v3_1_08DeepData5clearEv.exit
  tail call void @_ZN11OpenImageIO6v3_1_08DeepData4ImplD2Ev(ptr noundef nonnull align 8 dereferenceable(250) %.pr) #30
  tail call void @_ZdlPvm(ptr noundef nonnull %.pr, i64 noundef 256) #31
  br label %_ZN11OpenImageIO6v3_1_08DeepData5clearEv.exit.thread

_ZN11OpenImageIO6v3_1_08DeepData5clearEv.exit.thread: ; preds = %1, %6, %_ZN11OpenImageIO6v3_1_08DeepData5clearEv.exit
  store ptr null, ptr %0, align 8, !tbaa !35
  ret void
}